Certificate:
    Data:
        Version: 3 (0x2)
        Serial Number: 102 (0x66)
        Signature Algorithm: sha1WithRSAEncryption
        Issuer: C=CZ, ST=Czech Republic, L=Pilsen, O=Dasir CA, CN=dasir root certificate
        Validity
            Not Before: May 20 21:24:20 2011 GMT
            Not After : May 19 21:24:20 2012 GMT
        Subject: C=CZ, ST=Czech Republic, O=snakemq, CN=snakemqA
        Subject Public Key Info:
            Public Key Algorithm: rsaEncryption
            RSA Public Key: (4096 bit)
                Modulus (4096 bit):
                    00:c1:41:41:b2:10:5a:b6:21:cb:38:99:3b:ba:2a:
                    98:d1:fd:73:85:45:05:32:01:1e:9c:36:d0:ca:c8:
                    54:a7:72:8a:13:da:28:fc:3d:eb:5e:40:4d:d8:d4:
                    a1:c9:52:04:45:bb:ff:e3:92:e6:6a:a6:73:52:74:
                    b3:f4:96:80:83:73:8f:d4:2a:5a:86:6c:e8:1d:fd:
                    cc:d4:ff:3d:82:06:26:ee:67:2a:f8:29:48:c8:1d:
                    26:eb:0b:8a:6f:d1:98:d0:5b:ae:83:58:0b:63:5d:
                    49:4c:a8:fb:b1:d9:38:23:d4:11:ad:3b:26:68:b9:
                    8f:4b:91:73:69:fc:4a:ef:6d:16:36:93:35:9c:ba:
                    37:0a:8e:46:85:72:13:53:4a:2f:f6:02:ea:6d:96:
                    bc:d4:e4:c4:0d:ea:55:57:b6:53:63:59:fa:a3:17:
                    50:fd:4c:46:87:4b:cd:af:5b:7e:a6:10:ad:31:e8:
                    99:45:fa:ec:6b:60:83:cc:0e:d3:b9:b3:59:9e:3d:
                    84:b2:f7:51:d1:61:8c:69:28:fe:aa:71:ce:d1:e1:
                    2b:5e:84:34:49:43:97:16:fc:5b:d0:98:f1:16:59:
                    57:10:7b:c6:46:ad:36:a9:e1:4a:30:f9:d5:78:f1:
                    86:93:30:f9:64:bd:44:3c:4d:69:b3:ff:f3:d9:7c:
                    79:1b:35:bc:be:f8:95:90:1b:e7:8f:ce:4c:7b:de:
                    6c:c2:7e:66:a9:54:44:8b:5e:53:9b:1e:c6:0b:5a:
                    58:73:22:af:5e:1e:2c:38:96:d0:a2:53:4a:58:5c:
                    f0:de:d1:b2:40:38:67:e5:14:cb:4f:df:d4:19:b8:
                    c3:d0:af:18:e5:6e:30:44:66:0d:2d:60:d2:71:a1:
                    1a:fb:fd:a7:30:af:16:2e:2c:88:45:96:42:a4:58:
                    b8:72:90:5e:16:c5:bc:9b:9b:9d:af:4c:e7:a2:88:
                    37:5e:e3:71:b6:40:cf:77:2c:3a:b9:20:6b:c3:e7:
                    c8:eb:e7:fc:bd:31:5a:26:ce:c0:6a:49:99:b5:27:
                    25:06:1a:ca:ba:dc:64:a7:69:ed:24:48:c8:7d:eb:
                    8c:a0:a5:80:10:2f:5d:77:39:c7:b9:18:7d:22:fb:
                    29:94:b5:f8:6a:4c:9d:0f:83:fa:21:20:0f:53:e5:
                    b7:3b:39:96:07:34:de:e4:bc:9d:da:c2:3f:84:81:
                    2f:23:af:8c:4d:6b:a0:72:96:d4:8e:fb:2e:87:7f:
                    62:87:70:99:6c:86:c8:9e:38:63:4e:49:91:f6:d7:
                    21:0e:92:12:0a:47:50:b3:c4:18:1d:9b:e5:66:7a:
                    db:a2:93:00:86:d1:66:41:79:d1:a9:ad:86:8d:00:
                    ab:6d:97
                Exponent: 65537 (0x10001)
        X509v3 extensions:
            X509v3 Basic Constraints: 
                CA:FALSE
            Netscape Cert Type: 
                SSL Server
            Netscape Comment: 
                OpenSSL Generated Certificate
            X509v3 Subject Key Identifier: 
                2C:42:2A:0A:01:F9:ED:C4:3D:99:AD:85:33:6D:A2:C6:07:6A:8D:DA
            X509v3 Authority Key Identifier: 
                keyid:61:7F:A0:E4:87:AA:D7:BE:37:2E:01:20:44:CC:DC:3A:B4:1E:4D:51
                DirName:/C=CZ/ST=Czech Republic/L=Pilsen/O=Dasir CA/CN=dasir root certificate
                serial:FE:78:40:5A:DA:6B:C0:F3

    Signature Algorithm: sha1WithRSAEncryption
        1e:58:7e:3a:b4:e1:91:5f:2e:2f:a8:76:9d:4c:75:7e:9e:be:
        f3:8f:f4:df:7f:5b:11:15:18:05:16:e4:b3:92:49:2b:f9:69:
        63:75:e7:1c:ff:b9:5e:55:b8:9f:1a:a6:7e:83:69:68:6b:12:
        9f:41:14:f9:61:12:70:0b:2f:0c:2a:f3:d2:df:51:f1:a2:45:
        4b:c8:4b:3f:86:cd:5e:6e:9d:ed:e5:39:58:01:6b:a9:02:23:
        a8:39:43:c8:53:28:7b:fc:05:e3:81:b7:ef:ed:1e:00:53:68:
        aa:92:82:e9:36:fb:af:2a:89:78:bf:eb:84:fc:1b:7d:8f:04:
        01:7f:b9:ed:29:09:0e:3a:84:56:b2:22:6e:15:4c:9a:ad:d9:
        b4:cb:e7:92:82:6d:d5:9d:5e:b7:e0:03:67:b3:e0:cc:92:d6:
        95:f7:e6:c4:58:48:eb:f1:66:f1:b1:2e:0c:02:f7:f6:f1:fc:
        dd:6c:8c:d9:69:fe:b1:f8:64:3a:7c:cb:70:39:c4:6b:b9:94:
        1c:cc:26:99:83:47:cb:23:03:52:97:df:82:11:c3:2e:c8:ec:
        cb:bf:3e:47:7b:70:16:d8:f3:c8:a1:ed:e4:cd:8d:ac:83:21:
        d3:7d:6c:99:79:32:c8:e0:58:91:14:ad:75:5c:08:5b:1b:65:
        bb:8d:e6:0c:79:99:17:31:5d:46:8c:69:b1:58:a2:f5:73:0a:
        56:5d:79:2d:ac:33:1d:a8:71:02:b1:d6:2d:4c:64:0d:d6:f5:
        8b:e9:73:16:3d:1f:74:3f:1a:0d:0e:b4:84:dd:28:2f:0b:2e:
        32:f9:52:f2:99:2c:36:fd:67:1c:61:e2:15:41:24:3a:e3:26:
        42:50:a0:a4:80:32:a6:b6:be:41:7d:d1:27:c2:36:3e:24:b4:
        3c:40:e3:d3:a6:45:45:0a:99:76:26:86:56:5f:50:a4:1e:65:
        28:c1:af:26:14:d5:36:88:0c:18:3d:49:ed:48:41:33:c5:23:
        9f:b1:a7:ea:d4:a0:81:fe:4a:8e:de:4f:62:4f:79:0d:f0:b0:
        2e:be:e6:77:9d:2e:c7:5e:34:1d:30:c5:20:c6:1f:12:d5:df:
        97:d3:93:f6:51:22:37:a1:a6:ee:31:06:bc:f0:db:40:ed:cd:
        75:c3:09:33:65:1e:69:0f:7b:1b:e2:f6:87:e8:aa:50:69:1a:
        d3:d8:a8:f3:69:b6:21:06:26:e1:90:2e:74:78:02:f7:c4:27:
        58:4d:cd:86:13:d5:a8:8a:71:b8:ab:03:99:9e:62:46:0c:b6:
        a3:b8:6e:d1:80:bf:12:04:1c:24:39:e9:71:c0:f6:80:d8:9c:
        a8:76:1f:94:fa:10:ae:ee
-----BEGIN CERTIFICATE-----
MIIGQjCCBCqgAwIBAgIBZjANBgkqhkiG9w0BAQUFADBrMQswCQYDVQQGEwJDWjEX
MBUGA1UECBMOQ3plY2ggUmVwdWJsaWMxDzANBgNVBAcTBlBpbHNlbjERMA8GA1UE
ChMIRGFzaXIgQ0ExHzAdBgNVBAMTFmRhc2lyIHJvb3QgY2VydGlmaWNhdGUwHhcN
MTEwNTIwMjEyNDIwWhcNMTIwNTE5MjEyNDIwWjBLMQswCQYDVQQGEwJDWjEXMBUG
A1UECBMOQ3plY2ggUmVwdWJsaWMxEDAOBgNVBAoTB3NuYWtlbXExETAPBgNVBAMT
CHNuYWtlbXFBMIICIjANBgkqhkiG9w0BAQEFAAOCAg8AMIICCgKCAgEAwUFBshBa
tiHLOJk7uiqY0f1zhUUFMgEenDbQyshUp3KKE9oo/D3rXkBN2NShyVIERbv/45Lm
aqZzUnSz9JaAg3OP1CpahmzoHf3M1P89ggYm7mcq+ClIyB0m6wuKb9GY0Fuug1gL
Y11JTKj7sdk4I9QRrTsmaLmPS5FzafxK720WNpM1nLo3Co5GhXITU0ov9gLqbZa8
1OTEDepVV7ZTY1n6oxdQ/UxGh0vNr1t+phCtMeiZRfrsa2CDzA7TubNZnj2EsvdR
0WGMaSj+qnHO0eErXoQ0SUOXFvxb0JjxFllXEHvGRq02qeFKMPnVePGGkzD5ZL1E
PE1ps//z2Xx5GzW8vviVkBvnj85Me95swn5mqVREi15Tmx7GC1pYcyKvXh4sOJbQ
olNKWFzw3tGyQDhn5RTLT9/UGbjD0K8Y5W4wRGYNLWDScaEa+/2nMK8WLiyIRZZC
pFi4cpBeFsW8m5udr0znoog3XuNxtkDPdyw6uSBrw+fI6+f8vTFaJs7AakmZtScl
BhrKutxkp2ntJEjIfeuMoKWAEC9ddznHuRh9IvsplLX4akydD4P6ISAPU+W3OzmW
BzTe5Lyd2sI/hIEvI6+MTWugcpbUjvsuh39ih3CZbIbInjhjTkmR9tchDpISCkdQ
s8QYHZvlZnrbopMAhtFmQXnRqa2GjQCrbZcCAwEAAaOCAQ8wggELMAkGA1UdEwQC
MAAwEQYJYIZIAYb4QgEBBAQDAgZAMCwGCWCGSAGG+EIBDQQfFh1PcGVuU1NMIEdl
bmVyYXRlZCBDZXJ0aWZpY2F0ZTAdBgNVHQ4EFgQULEIqCgH57cQ9ma2FM22ixgdq
jdowgZ0GA1UdIwSBlTCBkoAUYX+g5Ieq1743LgEgRMzcOrQeTVGhb6RtMGsxCzAJ
BgNVBAYTAkNaMRcwFQYDVQQIEw5DemVjaCBSZXB1YmxpYzEPMA0GA1UEBxMGUGls
c2VuMREwDwYDVQQKEwhEYXNpciBDQTEfMB0GA1UEAxMWZGFzaXIgcm9vdCBjZXJ0
aWZpY2F0ZYIJAP54QFraa8DzMA0GCSqGSIb3DQEBBQUAA4ICAQAeWH46tOGRXy4v
qHadTHV+nr7zj/Tff1sRFRgFFuSzkkkr+Wljdecc/7leVbifGqZ+g2loaxKfQRT5
YRJwCy8MKvPS31HxokVLyEs/hs1ebp3t5TlYAWupAiOoOUPIUyh7/AXjgbfv7R4A
U2iqkoLpNvuvKol4v+uE/Bt9jwQBf7ntKQkOOoRWsiJuFUyardm0y+eSgm3VnV63
4ANns+DMktaV9+bEWEjr8WbxsS4MAvf28fzdbIzZaf6x+GQ6fMtwOcRruZQczCaZ
g0fLIwNSl9+CEcMuyOzLvz5He3AW2PPIoe3kzY2sgyHTfWyZeTLI4FiRFK11XAhb
G2W7jeYMeZkXMV1GjGmxWKL1cwpWXXktrDMdqHECsdYtTGQN1vWL6XMWPR90PxoN
DrSE3SgvCy4y+VLymSw2/WccYeIVQSQ64yZCUKCkgDKmtr5BfdEnwjY+JLQ8QOPT
pkVFCpl2JoZWX1CkHmUowa8mFNU2iAwYPUntSEEzxSOfsafq1KCB/kqO3k9iT3kN
8LAuvuZ3nS7HXjQdMMUgxh8S1d+X05P2USI3oabuMQa88NtA7c11wwkzZR5pD3sb
4vaH6KpQaRrT2KjzabYhBibhkC50eAL3xCdYTc2GE9WoinG4qwOZnmJGDLajuG7R
gL8SBBwkOelxwPaA2Jyodh+U+hCu7g==
-----END CERTIFICATE-----
